ccopy_reg
_reconstructor
p0
(csklearn.pipeline
Pipeline
p1
c__builtin__
object
p2
Ntp3
Rp4
(dp5
S'steps'
p6
(lp7
(S'pca'
p8
g0
(csklearn.decomposition.pca
PCA
p9
g2
Ntp10
Rp11
(dp12
S'components_'
p13
cnumpy.core.multiarray
_reconstruct
p14
(cnumpy
ndarray
p15
(I0
tp16
S'b'
p17
tp18
Rp19
(I1
(L2L
L3L
tp20
cnumpy
dtype
p21
(S'f8'
p22
I0
I1
tp23
Rp24
(I3
S'<'
p25
NNNI-1
I-1
I0
tp26
bI00
S"G\xfd\xd6\x0b%\xcb\xe1\xbf<\x03\xa0\x00\xf6\x8b\xea\xbf\xf7.\x17\xb5y\x1a\xaa?^\x9b\nv\xb6\x92\xea?%I\xc1'\xba\xd3\xe1\xbf\x89]\xbd\x98\xd5\x80\x80\xbf"
p27
tp28
bsS'noise_variance_'
p29
cnumpy.core.multiarray
scalar
p30
(g24
S'y\xf3T\x86K\xa8\x82?'
p31
tp32
Rp33
sS'mean_'
p34
g14
(g15
(I0
tp35
g17
tp36
Rp37
(I1
(L3L
tp38
g24
I00
S'\xc4\xe6\x909@\x07\xc0?\x00%\x14\xca1@\xc4? \x9c\xed\x97\x9a\xb9\x90?'
p39
tp40
bsS'explained_variance_ratio_'
p41
g14
(g15
(I0
tp42
g17
tp43
Rp44
(I1
(L2L
tp45
g24
I00
S'\xadO\xda\xc4\xdb\xcf\xe1?X\xa0\x9a\x05\x88\xd1\xd5?'
p46
tp47
bsS'n_samples_'
p48
L108L
sS'n_components'
p49
I2
sS'explained_variance_'
p50
g14
(g15
(I0
tp51
g17
tp52
Rp53
(I1
(L2L
tp54
g24
I00
S'\x85\nv\xb8\xbbV\xa9?S\xe3\xa3\x04\xd4\t\x9f?'
p55
tp56
bsS'n_components_'
p57
I2
sS'copy'
p58
I01
sS'whiten'
p59
I00
sbtp60
a(S'clf'
p61
g0
(csklearn.linear_model.logistic
LogisticRegression
p62
g2
Ntp63
Rp64
(dp65
S'warm_start'
p66
I00
sS'C'
p67
F0.0003
sS'max_iter'
p68
I100
sS'verbose'
p69
I0
sS'intercept_scaling'
p70
I1
sS'dual'
p71
I00
sS'fit_intercept'
p72
I01
sS'classes_'
p73
g14
(g15
(I0
tp74
g17
tp75
Rp76
(I1
(L2L
tp77
g24
I00
S'\x00\x00\x00\x00\x00\x00\x00\x00\x00\x00\x00\x00\x00\x00\xf0?'
p78
tp79
bsS'solver'
p80
S'liblinear'
p81
sS'n_iter_'
p82
g14
(g15
(I0
tp83
g17
tp84
Rp85
(I1
(L1L
tp86
g21
(S'i4'
p87
I0
I1
tp88
Rp89
(I3
S'<'
p90
NNNI-1
I-1
I0
tp91
bI00
S'\x02\x00\x00\x00'
p92
tp93
bsS'penalty'
p94
S'l2'
p95
sS'multi_class'
p96
S'ovr'
p97
sS'random_state'
p98
I111
sS'tol'
p99
F0.0001
sS'n_jobs'
p100
I1
sS'coef_'
p101
g14
(g15
(I0
tp102
g17
tp103
Rp104
(I1
(L1L
L2L
tp105
g24
I01
S'\xed\x08\x1d:\x9e\xd5[\xbf\x92\xe70\xbc\x93\x80H?'
p106
tp107
bsS'intercept_'
p108
g14
(g15
(I0
tp109
g17
tp110
Rp111
(I1
(L1L
tp112
g24
I00
S'\xc9\xfe\xc3\xda\xba?\xb5\xbe'
p113
tp114
bsS'class_weight'
p115
S'balanced'
p116
sbtp117
asb.